target datalayout = "e-m:e-p270:32:32-p271:32:32-p272:64:64-i64:64-i128:128-f80:128-n8:16:32:64-S128"
target triple = "x86_64-unknown-linux-gnu"

%"class.QuantLib::Date" = type { i64 }

; Function Attrs: inlinehint mustprogress uwtable
define linkonce_odr noundef i32 @_ZNK8QuantLib4Date9dayOfYearEv(ptr noundef nonnull align 8 dereferenceable(8) %this) #6 comdat align 2 {
entry:
  %this.addr = alloca ptr, align 8
  store ptr %this, ptr %this.addr, align 8, !tbaa !3
  %this1 = load ptr, ptr %this.addr, align 8
  %serialNumber_ = getelementptr inbounds nuw %"class.QuantLib::Date", ptr %this1, i32 0, i32 0
  %0 = load i64, ptr %serialNumber_, align 8, !tbaa !13
  %call = call noundef i32 @_ZNK8QuantLib4Date4yearEv(ptr noundef nonnull align 8 dereferenceable(8) %this1)
  %call2 = call noundef i64 @_ZN8QuantLib4Date10yearOffsetEi(i32 noundef %call)
  %sub = sub nsw i64 %0, %call2
  %conv = trunc i64 %sub to i32
  ret i32 %conv
}

; Function Attrs: inlinehint mustprogress uwtable
define linkonce_odr noundef i32 @_ZNK8QuantLib4Date10dayOfMonthEv(ptr noundef nonnull align 8 dereferenceable(8) %this) #6 comdat align 2 {
entry:
  %this.addr = alloca ptr, align 8
  store ptr %this, ptr %this.addr, align 8, !tbaa !3
  %this1 = load ptr, ptr %this.addr, align 8
  %call = call noundef i32 @_ZNK8QuantLib4Date9dayOfYearEv(ptr noundef nonnull align 8 dereferenceable(8) %this1)
  %call2 = call noundef i32 @_ZNK8QuantLib4Date5monthEv(ptr noundef nonnull align 8 dereferenceable(8) %this1)
  %call3 = call noundef i32 @_ZNK8QuantLib4Date4yearEv(ptr noundef nonnull align 8 dereferenceable(8) %this1)
  %call4 = call noundef zeroext i1 @_ZN8QuantLib4Date6isLeapEi(i32 noundef %call3)
  %call5 = call noundef i32 @_ZN8QuantLib4Date11monthOffsetENS_5MonthEb(i32 noundef %call2, i1 noundef zeroext %call4)
  %sub = sub nsw i32 %call, %call5
  ret i32 %sub
}

; Function Attrs: inlinehint mustprogress nounwind uwtable
define linkonce_odr noundef i32 @_ZNK8QuantLib4Date7weekdayEv(ptr noundef nonnull align 8 dereferenceable(8) %this) #5 comdat align 2 {
entry:
  %this.addr = alloca ptr, align 8
  %w = alloca i32, align 4
  store ptr %this, ptr %this.addr, align 8, !tbaa !3
  %this1 = load ptr, ptr %this.addr, align 8
  call void @llvm.lifetime.start.p0(i64 4, ptr %w) #10
  %serialNumber_ = getelementptr inbounds nuw %"class.QuantLib::Date", ptr %this1, i32 0, i32 0
  %0 = load i64, ptr %serialNumber_, align 8, !tbaa !13
  %rem = srem i64 %0, 7
  %conv = trunc i64 %rem to i32
  store i32 %conv, ptr %w, align 4, !tbaa !9
  %1 = load i32, ptr %w, align 4, !tbaa !9
  %cmp = icmp eq i32 %1, 0
  br i1 %cmp, label %cond.true, label %cond.false

cond.true:                                        ; preds = %entry
  br label %cond.end

cond.false:                                       ; preds = %entry
  %2 = load i32, ptr %w, align 4, !tbaa !9
  br label %cond.end

cond.end:                                         ; preds = %cond.false, %cond.true
  %cond = phi i32 [ 7, %cond.true ], [ %2, %cond.false ]
  call void @llvm.lifetime.end.p0(i64 4, ptr %w) #10
  ret i32 %cond
}

; Function Attrs: mustprogress uwtable
define noundef zeroext i1 @_ZN8QuantLib3ASX9isASXdateERKNS_4DateEb(ptr noundef nonnull align 8 dereferenceable(8) %date, i1 noundef zeroext %mainCycle) #4 align 2 {
entry:
  %retval = alloca i1, align 1
  %date.addr = alloca ptr, align 8
  %mainCycle.addr = alloca i8, align 1
  %d = alloca i32, align 4
  %cleanup.dest.slot = alloca i32, align 4
  store ptr %date, ptr %date.addr, align 8, !tbaa !3
  %storedv = zext i1 %mainCycle to i8
  store i8 %storedv, ptr %mainCycle.addr, align 1, !tbaa !7
  %0 = load ptr, ptr %date.addr, align 8, !tbaa !3
  %call = call noundef i32 @_ZNK8QuantLib4Date7weekdayEv(ptr noundef nonnull align 8 dereferenceable(8) %0)
  %cmp = icmp ne i32 %call, 6
  br i1 %cmp, label %if.then, label %if.end

if.then:                                          ; preds = %entry
  store i1 false, ptr %retval, align 1
  br label %return

if.end:                                           ; preds = %entry
  call void @llvm.lifetime.start.p0(i64 4, ptr %d) #10
  %1 = load ptr, ptr %date.addr, align 8, !tbaa !3
  %call1 = call noundef i32 @_ZNK8QuantLib4Date10dayOfMonthEv(ptr noundef nonnull align 8 dereferenceable(8) %1)
  store i32 %call1, ptr %d, align 4, !tbaa !9
  %2 = load i32, ptr %d, align 4, !tbaa !9
  %cmp2 = icmp slt i32 %2, 8
  br i1 %cmp2, label %if.then4, label %lor.lhs.false

lor.lhs.false:                                    ; preds = %if.end
  %3 = load i32, ptr %d, align 4, !tbaa !9
  %cmp3 = icmp sgt i32 %3, 14
  br i1 %cmp3, label %if.then4, label %if.end5

if.then4:                                         ; preds = %lor.lhs.false, %if.end
  store i1 false, ptr %retval, align 1
  store i32 1, ptr %cleanup.dest.slot, align 4
  br label %cleanup

if.end5:                                          ; preds = %lor.lhs.false
  %4 = load i8, ptr %mainCycle.addr, align 1, !tbaa !7, !range !11, !noundef !12
  %loadedv = trunc i8 %4 to i1
  br i1 %loadedv, label %if.end7, label %if.then6

if.then6:                                         ; preds = %if.end5
  store i1 true, ptr %retval, align 1
  store i32 1, ptr %cleanup.dest.slot, align 4
  br label %cleanup

if.end7:                                          ; preds = %if.end5
  %5 = load ptr, ptr %date.addr, align 8, !tbaa !3
  %call8 = call noundef i32 @_ZNK8QuantLib4Date5monthEv(ptr noundef nonnull align 8 dereferenceable(8) %5)
  switch i32 %call8, label %sw.default [
    i32 3, label %sw.bb
    i32 6, label %sw.bb
    i32 9, label %sw.bb
    i32 12, label %sw.bb
  ]

sw.bb:                                            ; preds = %if.end7, %if.end7, %if.end7, %if.end7
  store i1 true, ptr %retval, align 1
  store i32 1, ptr %cleanup.dest.slot, align 4
  br label %cleanup

sw.default:                                       ; preds = %if.end7
  store i1 false, ptr %retval, align 1
  store i32 1, ptr %cleanup.dest.slot, align 4
  br label %cleanup

cleanup:                                          ; preds = %sw.default, %sw.bb, %if.then6, %if.then4
  call void @llvm.lifetime.end.p0(i64 4, ptr %d) #10
  br label %return

return:                                           ; preds = %cleanup, %if.then
  %6 = load i1, ptr %retval, align 1
  ret i1 %6
}